; Function Attrs: nounwind uwtable
define internal range(i32 -2147483648, 1) i32 @alp_read_packet(ptr noundef readonly captures(none) %0, ptr noundef %1) #1 {
  %3 = getelementptr inbounds nuw i8, ptr %0, i64 48
  %4 = load ptr, ptr %3, align 8, !tbaa !51
  %5 = load ptr, ptr %4, align 8, !tbaa !52
  %6 = getelementptr inbounds nuw i8, ptr %5, i64 16
  %7 = load ptr, ptr %6, align 8, !tbaa !34
  %8 = getelementptr inbounds nuw i8, ptr %0, i64 32
  %9 = load ptr, ptr %8, align 8, !tbaa !27
  %10 = tail call i32 @av_get_packet(ptr noundef %9, ptr noundef %1, i32 noundef 4096) #5
  %11 = icmp slt i32 %10, 0
  br i1 %11, label %23, label %12

12:                                               ; preds = %2
  %13 = getelementptr inbounds nuw i8, ptr %1, i64 40
  %14 = load i32, ptr %13, align 8, !tbaa !54
  %15 = and i32 %14, -3
  store i32 %15, ptr %13, align 8, !tbaa !54
  %16 = getelementptr inbounds nuw i8, ptr %1, i64 36
  store i32 0, ptr %16, align 4, !tbaa !55
  %17 = shl nuw nsw i32 %10, 1
  %18 = getelementptr inbounds nuw i8, ptr %7, i64 132
  %19 = load i32, ptr %18, align 4, !tbaa !49
  %20 = sdiv i32 %17, %19
  %21 = sext i32 %20 to i64
  %22 = getelementptr inbounds nuw i8, ptr %1, i64 64
  store i64 %21, ptr %22, align 8, !tbaa !56
  br label %23

23:                                               ; preds = %2, %12
  %.0 = phi i32 [ 0, %12 ], [ %10, %2 ]
  ret i32 %.0
}